                                      1 ;--------------------------------------------------------
                                      2 ; File Created by SDCC : free open source ISO C Compiler 
                                      3 ; Version 4.4.1 #14650 (MINGW64)
                                      4 ;--------------------------------------------------------
                                      5 	.module joypadMgmt
                                      6 	.optsdcc -msm83
                                      7 	
                                      8 ;--------------------------------------------------------
                                      9 ; Public variables in this module
                                     10 ;--------------------------------------------------------
                                     11 	.globl _subPixCalc
                                     12 	.globl _joypad
                                     13 	.globl _pghostyY
                                     14 	.globl _pghostyX
                                     15 	.globl _gravityGhost
                                     16 	.globl _pcFacing
                                     17 	.globl _ghostyX
                                     18 	.globl _ghostyY
                                     19 	.globl _ghostySpeedY
                                     20 	.globl _ghostySpeedX
                                     21 	.globl _joypadMgr
                                     22 ;--------------------------------------------------------
                                     23 ; special function registers
                                     24 ;--------------------------------------------------------
                                     25 ;--------------------------------------------------------
                                     26 ; ram data
                                     27 ;--------------------------------------------------------
                                     28 	.area _DATA
    00000000                         29 _activeBones:
    00000000                         30 	.ds 1
    00000001                         31 _boneCounter:
    00000001                         32 	.ds 1
    00000002                         33 _frameCounter:
    00000002                         34 	.ds 1
                                     35 ;--------------------------------------------------------
                                     36 ; ram data
                                     37 ;--------------------------------------------------------
                                     38 	.area _INITIALIZED
    00000000                         39 _ghostySpeedX::
    00000000                         40 	.ds 2
    00000002                         41 _ghostySpeedY::
    00000002                         42 	.ds 2
    00000004                         43 _ghostyY::
    00000004                         44 	.ds 2
    00000006                         45 _ghostyX::
    00000006                         46 	.ds 2
    00000008                         47 _pcFacing::
    00000008                         48 	.ds 1
    00000009                         49 _gravityGhost::
    00000009                         50 	.ds 2
    0000000B                         51 _pghostyX::
    0000000B                         52 	.ds 2
    0000000D                         53 _pghostyY::
    0000000D                         54 	.ds 2
                                     55 ;--------------------------------------------------------
                                     56 ; absolute external ram data
                                     57 ;--------------------------------------------------------
                                     58 	.area _DABS (ABS)
                                     59 ;--------------------------------------------------------
                                     60 ; global & static initialisations
                                     61 ;--------------------------------------------------------
                                     62 	.area _HOME
                                     63 	.area _GSINIT
                                     64 	.area _GSFINAL
                                     65 	.area _GSINIT
                                     66 ;--------------------------------------------------------
                                     67 ; Home
                                     68 ;--------------------------------------------------------
                                     69 	.area _HOME
                                     70 	.area _HOME
                                     71 ;--------------------------------------------------------
                                     72 ; code
                                     73 ;--------------------------------------------------------
                                     74 	.area _CODE
                                     75 ;C:\Users\wsajj\GBdev\gbdk\_code\gbJam24\source\Mechanic\joypadMgmt.c:39: void joypadMgr(void){
                                     76 ;	---------------------------------
                                     77 ; Function joypadMgr
                                     78 ; ---------------------------------
    00000000                         79 _joypadMgr::
    00000000 E8 FB            [16]   80 	add	sp, #-5
                                     81 ;C:\Users\wsajj\GBdev\gbdk\_code\gbJam24\source\Mechanic\joypadMgmt.c:41: if(ghostySpeedY < MAX_SPD_DOWN){
    00000002 21r02r00         [12]   82 	ld	hl, #_ghostySpeedY
    00000005 2A               [ 8]   83 	ld	a, (hl+)
    00000006 4F               [ 4]   84 	ld	c, a
    00000007 46               [ 8]   85 	ld	b, (hl)
    00000008 79               [ 4]   86 	ld	a, c
    00000009 D6 E8            [ 8]   87 	sub	a, #0xe8
    0000000B 78               [ 4]   88 	ld	a, b
    0000000C 17               [ 4]   89 	rla
    0000000D 3F               [ 4]   90 	ccf
    0000000E 1F               [ 4]   91 	rra
    0000000F DE 83            [ 8]   92 	sbc	a, #0x83
    00000011 D2r61r03         [16]   93 	jp	NC, 00170$
                                     94 ;C:\Users\wsajj\GBdev\gbdk\_code\gbJam24\source\Mechanic\joypadMgmt.c:43: ghostySpeedY += gravityGhost;
    00000014 2B               [ 8]   95 	dec	hl
    00000015 2A               [ 8]   96 	ld	a, (hl+)
    00000016 4F               [ 4]   97 	ld	c, a
    00000017 46               [ 8]   98 	ld	b, (hl)
    00000018 79               [ 4]   99 	ld	a, c
    00000019 21r09r00         [12]  100 	ld	hl, #_gravityGhost
    0000001C 86               [ 8]  101 	add	a, (hl)
    0000001D EAr02r00         [16]  102 	ld	(#_ghostySpeedY),a
    00000020 78               [ 4]  103 	ld	a, b
    00000021 21r0Ar00         [12]  104 	ld	hl, #_gravityGhost + 1
    00000024 8E               [ 8]  105 	adc	a, (hl)
    00000025 EAr03r00         [16]  106 	ld	(#_ghostySpeedY + 1),a
                                    107 ;C:\Users\wsajj\GBdev\gbdk\_code\gbJam24\source\Mechanic\joypadMgmt.c:45: if(gravityGhost < MAX_GRAVITY){            
    00000028 21r09r00         [12]  108 	ld	hl, #_gravityGhost
    0000002B 2A               [ 8]  109 	ld	a, (hl+)
    0000002C 4F               [ 4]  110 	ld	c, a
    0000002D 46               [ 8]  111 	ld	b, (hl)
    0000002E 79               [ 4]  112 	ld	a, c
    0000002F D6 F4            [ 8]  113 	sub	a, #0xf4
    00000031 78               [ 4]  114 	ld	a, b
    00000032 DE 01            [ 8]  115 	sbc	a, #0x01
    00000034 30 06            [12]  116 	jr	NC, 00102$
                                    117 ;C:\Users\wsajj\GBdev\gbdk\_code\gbJam24\source\Mechanic\joypadMgmt.c:46: gravityGhost++;
    00000036 2B               [ 8]  118 	dec	hl
    00000037 34               [12]  119 	inc	(hl)
    00000038 20 02            [12]  120 	jr	NZ, 00382$
    0000003A 23               [ 8]  121 	inc	hl
    0000003B 34               [12]  122 	inc	(hl)
    0000003C                        123 00382$:
    0000003C                        124 00102$:
                                    125 ;C:\Users\wsajj\GBdev\gbdk\_code\gbJam24\source\Mechanic\joypadMgmt.c:50: joypadCurrent = joypad();
    0000003C CDr00r00         [24]  126 	call	_joypad
    0000003F F8 00            [12]  127 	ldhl	sp,	#0
    00000041 77               [ 8]  128 	ld	(hl), a
                                    129 ;C:\Users\wsajj\GBdev\gbdk\_code\gbJam24\source\Mechanic\joypadMgmt.c:41: if(ghostySpeedY < MAX_SPD_DOWN){
    00000042 21r02r00         [12]  130 	ld	hl, #_ghostySpeedY
    00000045 2A               [ 8]  131 	ld	a, (hl+)
    00000046 4F               [ 4]  132 	ld	c, a
    00000047 46               [ 8]  133 	ld	b, (hl)
                                    134 ;C:\Users\wsajj\GBdev\gbdk\_code\gbJam24\source\Mechanic\joypadMgmt.c:71: ghostySpeedY -= SPD_CHANGE;
    00000048 79               [ 4]  135 	ld	a, c
    00000049 C6 F8            [ 8]  136 	add	a, #0xf8
    0000004B 5F               [ 4]  137 	ld	e, a
    0000004C 78               [ 4]  138 	ld	a, b
    0000004D CE FF            [ 8]  139 	adc	a, #0xff
    0000004F F8 01            [12]  140 	ldhl	sp,	#1
    00000051 73               [ 8]  141 	ld	(hl), e
    00000052 23               [ 8]  142 	inc	hl
    00000053 77               [ 8]  143 	ld	(hl), a
                                    144 ;C:\Users\wsajj\GBdev\gbdk\_code\gbJam24\source\Mechanic\joypadMgmt.c:61: if(joypadCurrent & J_UP){
    00000054 E5               [16]  145 	push	hl
    00000055 2B               [ 8]  146 	dec	hl
    00000056 2B               [ 8]  147 	dec	hl
    00000057 CB 56            [12]  148 	bit	2, (hl)
    00000059 E1               [12]  149 	pop	hl
    0000005A 28 31            [12]  150 	jr	Z, 00120$
                                    151 ;C:\Users\wsajj\GBdev\gbdk\_code\gbJam24\source\Mechanic\joypadMgmt.c:63: gravityGhost = 0;
    0000005C AF               [ 4]  152 	xor	a, a
    0000005D 21r09r00         [12]  153 	ld	hl, #_gravityGhost
    00000060 22               [ 8]  154 	ld	(hl+), a
    00000061 77               [ 8]  155 	ld	(hl), a
                                    156 ;C:\Users\wsajj\GBdev\gbdk\_code\gbJam24\source\Mechanic\joypadMgmt.c:70: if(ghostySpeedY > MAX_SPD_UP){            
    00000062 58               [ 4]  157 	ld	e, b
    00000063 16 FC            [ 8]  158 	ld	d, #0xfc
    00000065 3E 18            [ 8]  159 	ld	a, #0x18
    00000067 B9               [ 4]  160 	cp	a, c
    00000068 3E FC            [ 8]  161 	ld	a, #0xfc
    0000006A 98               [ 4]  162 	sbc	a, b
    0000006B CB 7B            [ 8]  163 	bit	7, e
    0000006D 28 07            [12]  164 	jr	Z, 00384$
    0000006F CB 7A            [ 8]  165 	bit	7, d
    00000071 20 08            [12]  166 	jr	NZ, 00385$
    00000073 BF               [ 4]  167 	cp	a, a
    00000074 18 05            [12]  168 	jr	00385$
    00000076                        169 00384$:
    00000076 CB 7A            [ 8]  170 	bit	7, d
    00000078 28 01            [12]  171 	jr	Z, 00385$
    0000007A 37               [ 4]  172 	scf
    0000007B                        173 00385$:
    0000007B D2r19r01         [16]  174 	jp	NC, 00121$
                                    175 ;C:\Users\wsajj\GBdev\gbdk\_code\gbJam24\source\Mechanic\joypadMgmt.c:71: ghostySpeedY -= SPD_CHANGE;
    0000007E F8 01            [12]  176 	ldhl	sp,	#1
    00000080 7E               [ 8]  177 	ld	a, (hl)
    00000081 EAr02r00         [16]  178 	ld	(#_ghostySpeedY),a
    00000084 F8 02            [12]  179 	ldhl	sp,	#2
    00000086 7E               [ 8]  180 	ld	a, (hl)
    00000087 EAr03r00         [16]  181 	ld	(#_ghostySpeedY + 1),a
    0000008A C3r19r01         [16]  182 	jp	00121$
    0000008D                        183 00120$:
                                    184 ;C:\Users\wsajj\GBdev\gbdk\_code\gbJam24\source\Mechanic\joypadMgmt.c:76: ghostySpeedY += SPD_CHANGE;
    0000008D 21 08 00         [12]  185 	ld	hl, #0x0008
    00000090 09               [ 8]  186 	add	hl, bc
    00000091 5D               [ 4]  187 	ld	e, l
    00000092 7C               [ 4]  188 	ld	a, h
    00000093 F8 03            [12]  189 	ldhl	sp,	#3
    00000095 73               [ 8]  190 	ld	(hl), e
    00000096 23               [ 8]  191 	inc	hl
    00000097 77               [ 8]  192 	ld	(hl), a
                                    193 ;C:\Users\wsajj\GBdev\gbdk\_code\gbJam24\source\Mechanic\joypadMgmt.c:73: } else if(joypadCurrent & J_DOWN){
    00000098 E5               [16]  194 	push	hl
    00000099 F8 02            [12]  195 	ldhl	sp,	#2
    0000009B CB 5E            [12]  196 	bit	3, (hl)
    0000009D E1               [12]  197 	pop	hl
    0000009E 28 19            [12]  198 	jr	Z, 00117$
                                    199 ;C:\Users\wsajj\GBdev\gbdk\_code\gbJam24\source\Mechanic\joypadMgmt.c:75: if(ghostySpeedY < MAX_SPD_DOWN){
    000000A0 79               [ 4]  200 	ld	a, c
    000000A1 D6 E8            [ 8]  201 	sub	a, #0xe8
    000000A3 78               [ 4]  202 	ld	a, b
    000000A4 17               [ 4]  203 	rla
    000000A5 3F               [ 4]  204 	ccf
    000000A6 1F               [ 4]  205 	rra
    000000A7 DE 83            [ 8]  206 	sbc	a, #0x83
    000000A9 30 6E            [12]  207 	jr	NC, 00121$
                                    208 ;C:\Users\wsajj\GBdev\gbdk\_code\gbJam24\source\Mechanic\joypadMgmt.c:76: ghostySpeedY += SPD_CHANGE;
    000000AB F8 03            [12]  209 	ldhl	sp,	#3
    000000AD 7E               [ 8]  210 	ld	a, (hl)
    000000AE EAr02r00         [16]  211 	ld	(#_ghostySpeedY),a
    000000B1 F8 04            [12]  212 	ldhl	sp,	#4
    000000B3 7E               [ 8]  213 	ld	a, (hl)
    000000B4 EAr03r00         [16]  214 	ld	(#_ghostySpeedY + 1),a
    000000B7 18 60            [12]  215 	jr	00121$
    000000B9                        216 00117$:
                                    217 ;C:\Users\wsajj\GBdev\gbdk\_code\gbJam24\source\Mechanic\joypadMgmt.c:79: if(ghostySpeedY > 0){
    000000B9 58               [ 4]  218 	ld	e, b
    000000BA AF               [ 4]  219 	xor	a, a
    000000BB 57               [ 4]  220 	ld	d, a
    000000BC B9               [ 4]  221 	cp	a, c
    000000BD 98               [ 4]  222 	sbc	a, b
    000000BE CB 7B            [ 8]  223 	bit	7, e
    000000C0 28 07            [12]  224 	jr	Z, 00387$
    000000C2 CB 7A            [ 8]  225 	bit	7, d
    000000C4 20 08            [12]  226 	jr	NZ, 00388$
    000000C6 BF               [ 4]  227 	cp	a, a
    000000C7 18 05            [12]  228 	jr	00388$
    000000C9                        229 00387$:
    000000C9 CB 7A            [ 8]  230 	bit	7, d
    000000CB 28 01            [12]  231 	jr	Z, 00388$
    000000CD 37               [ 4]  232 	scf
    000000CE                        233 00388$:
    000000CE 30 18            [12]  234 	jr	NC, 00114$
                                    235 ;C:\Users\wsajj\GBdev\gbdk\_code\gbJam24\source\Mechanic\joypadMgmt.c:81: ghostySpeedY -= SPD_CHANGE;
    000000D0 F8 01            [12]  236 	ldhl	sp,	#1
    000000D2 7E               [ 8]  237 	ld	a, (hl)
    000000D3 EAr02r00         [16]  238 	ld	(#_ghostySpeedY),a
    000000D6 F8 02            [12]  239 	ldhl	sp,	#2
    000000D8 7E               [ 8]  240 	ld	a, (hl)
    000000D9 21r03r00         [12]  241 	ld	hl, #_ghostySpeedY + 1
                                    242 ;C:\Users\wsajj\GBdev\gbdk\_code\gbJam24\source\Mechanic\joypadMgmt.c:83: if(ghostySpeedY < 0){
    000000DC 32               [ 8]  243 	ld	(hl-), a
    000000DD 2A               [ 8]  244 	ld	a, (hl+)
    000000DE CB 7E            [12]  245 	bit	7, (hl)
    000000E0 28 37            [12]  246 	jr	Z, 00121$
                                    247 ;C:\Users\wsajj\GBdev\gbdk\_code\gbJam24\source\Mechanic\joypadMgmt.c:84: ghostySpeedY = 0;
    000000E2 2B               [ 8]  248 	dec	hl
    000000E3 AF               [ 4]  249 	xor	a, a
    000000E4 22               [ 8]  250 	ld	(hl+), a
    000000E5 77               [ 8]  251 	ld	(hl), a
    000000E6 18 31            [12]  252 	jr	00121$
    000000E8                        253 00114$:
                                    254 ;C:\Users\wsajj\GBdev\gbdk\_code\gbJam24\source\Mechanic\joypadMgmt.c:86: } else if(ghostySpeedY < 0){
    000000E8 CB 78            [ 8]  255 	bit	7, b
    000000EA 28 2D            [12]  256 	jr	Z, 00121$
                                    257 ;C:\Users\wsajj\GBdev\gbdk\_code\gbJam24\source\Mechanic\joypadMgmt.c:88: ghostySpeedY += SPD_CHANGE;
    000000EC F8 03            [12]  258 	ldhl	sp,	#3
    000000EE 7E               [ 8]  259 	ld	a, (hl)
    000000EF EAr02r00         [16]  260 	ld	(#_ghostySpeedY),a
    000000F2 F8 04            [12]  261 	ldhl	sp,	#4
    000000F4 7E               [ 8]  262 	ld	a, (hl)
    000000F5 21r03r00         [12]  263 	ld	hl, #_ghostySpeedY + 1
                                    264 ;C:\Users\wsajj\GBdev\gbdk\_code\gbJam24\source\Mechanic\joypadMgmt.c:90: if (ghostySpeedY > 0){
    000000F8 32               [ 8]  265 	ld	(hl-), a
    000000F9 2A               [ 8]  266 	ld	a, (hl+)
    000000FA 4F               [ 4]  267 	ld	c, a
    000000FB 46               [ 8]  268 	ld	b, (hl)
    000000FC 58               [ 4]  269 	ld	e, b
    000000FD AF               [ 4]  270 	xor	a, a
    000000FE 57               [ 4]  271 	ld	d, a
    000000FF B9               [ 4]  272 	cp	a, c
    00000100 98               [ 4]  273 	sbc	a, b
    00000101 CB 7B            [ 8]  274 	bit	7, e
    00000103 28 07            [12]  275 	jr	Z, 00389$
    00000105 CB 7A            [ 8]  276 	bit	7, d
    00000107 20 08            [12]  277 	jr	NZ, 00390$
    00000109 BF               [ 4]  278 	cp	a, a
    0000010A 18 05            [12]  279 	jr	00390$
    0000010C                        280 00389$:
    0000010C CB 7A            [ 8]  281 	bit	7, d
    0000010E 28 01            [12]  282 	jr	Z, 00390$
    00000110 37               [ 4]  283 	scf
    00000111                        284 00390$:
    00000111 30 06            [12]  285 	jr	NC, 00121$
                                    286 ;C:\Users\wsajj\GBdev\gbdk\_code\gbJam24\source\Mechanic\joypadMgmt.c:91: ghostySpeedY = 0;
    00000113 AF               [ 4]  287 	xor	a, a
    00000114 21r02r00         [12]  288 	ld	hl, #_ghostySpeedY
    00000117 22               [ 8]  289 	ld	(hl+), a
    00000118 77               [ 8]  290 	ld	(hl), a
    00000119                        291 00121$:
                                    292 ;C:\Users\wsajj\GBdev\gbdk\_code\gbJam24\source\Mechanic\joypadMgmt.c:98: if(ghostySpeedX > MAX_SPD_LEFT){
    00000119 21r00r00         [12]  293 	ld	hl, #_ghostySpeedX
    0000011C 2A               [ 8]  294 	ld	a, (hl+)
    0000011D 4F               [ 4]  295 	ld	c, a
    0000011E 46               [ 8]  296 	ld	b, (hl)
                                    297 ;C:\Users\wsajj\GBdev\gbdk\_code\gbJam24\source\Mechanic\joypadMgmt.c:99: ghostySpeedX -= SPD_CHANGE;
    0000011F 79               [ 4]  298 	ld	a, c
    00000120 C6 F8            [ 8]  299 	add	a, #0xf8
    00000122 5F               [ 4]  300 	ld	e, a
    00000123 78               [ 4]  301 	ld	a, b
    00000124 CE FF            [ 8]  302 	adc	a, #0xff
    00000126 F8 01            [12]  303 	ldhl	sp,	#1
    00000128 73               [ 8]  304 	ld	(hl), e
    00000129 23               [ 8]  305 	inc	hl
    0000012A 77               [ 8]  306 	ld	(hl), a
                                    307 ;C:\Users\wsajj\GBdev\gbdk\_code\gbJam24\source\Mechanic\joypadMgmt.c:96: if(joypadCurrent & J_LEFT){
    0000012B E5               [16]  308 	push	hl
    0000012C 2B               [ 8]  309 	dec	hl
    0000012D 2B               [ 8]  310 	dec	hl
    0000012E CB 4E            [12]  311 	bit	1, (hl)
    00000130 E1               [12]  312 	pop	hl
    00000131 28 33            [12]  313 	jr	Z, 00144$
                                    314 ;C:\Users\wsajj\GBdev\gbdk\_code\gbJam24\source\Mechanic\joypadMgmt.c:98: if(ghostySpeedX > MAX_SPD_LEFT){
    00000133 58               [ 4]  315 	ld	e, b
    00000134 16 FC            [ 8]  316 	ld	d, #0xfc
    00000136 3E 18            [ 8]  317 	ld	a, #0x18
    00000138 B9               [ 4]  318 	cp	a, c
    00000139 3E FC            [ 8]  319 	ld	a, #0xfc
    0000013B 98               [ 4]  320 	sbc	a, b
    0000013C CB 7B            [ 8]  321 	bit	7, e
    0000013E 28 07            [12]  322 	jr	Z, 00392$
    00000140 CB 7A            [ 8]  323 	bit	7, d
    00000142 20 08            [12]  324 	jr	NZ, 00393$
    00000144 BF               [ 4]  325 	cp	a, a
    00000145 18 05            [12]  326 	jr	00393$
    00000147                        327 00392$:
    00000147 CB 7A            [ 8]  328 	bit	7, d
    00000149 28 01            [12]  329 	jr	Z, 00393$
    0000014B 37               [ 4]  330 	scf
    0000014C                        331 00393$:
    0000014C 30 0C            [12]  332 	jr	NC, 00124$
                                    333 ;C:\Users\wsajj\GBdev\gbdk\_code\gbJam24\source\Mechanic\joypadMgmt.c:99: ghostySpeedX -= SPD_CHANGE;
    0000014E F8 01            [12]  334 	ldhl	sp,	#1
    00000150 7E               [ 8]  335 	ld	a, (hl)
    00000151 EAr00r00         [16]  336 	ld	(#_ghostySpeedX),a
    00000154 F8 02            [12]  337 	ldhl	sp,	#2
    00000156 7E               [ 8]  338 	ld	a, (hl)
    00000157 EAr01r00         [16]  339 	ld	(#_ghostySpeedX + 1),a
                                    340 ;C:\Users\wsajj\GBdev\gbdk\_code\gbJam24\source\Mechanic\joypadMgmt.c:102: while(pcFacing!=0){
    0000015A                        341 00124$:
    0000015A 21r08r00         [12]  342 	ld	hl, #_pcFacing
    0000015D 7E               [ 8]  343 	ld	a, (hl)
    0000015E B7               [ 4]  344 	or	a, a
    0000015F CArFBr01         [16]  345 	jp	Z, 00145$
                                    346 ;C:\Users\wsajj\GBdev\gbdk\_code\gbJam24\source\Mechanic\joypadMgmt.c:103: pcFacing = 0;
    00000162 36 00            [12]  347 	ld	(hl), #0x00
    00000164 18 F4            [12]  348 	jr	00124$
    00000166                        349 00144$:
                                    350 ;C:\Users\wsajj\GBdev\gbdk\_code\gbJam24\source\Mechanic\joypadMgmt.c:110: ghostySpeedX += SPD_CHANGE;
    00000166 21 08 00         [12]  351 	ld	hl, #0x0008
    00000169 09               [ 8]  352 	add	hl, bc
    0000016A 5D               [ 4]  353 	ld	e, l
    0000016B 7C               [ 4]  354 	ld	a, h
    0000016C F8 03            [12]  355 	ldhl	sp,	#3
    0000016E 73               [ 8]  356 	ld	(hl), e
    0000016F 23               [ 8]  357 	inc	hl
    00000170 77               [ 8]  358 	ld	(hl), a
                                    359 ;C:\Users\wsajj\GBdev\gbdk\_code\gbJam24\source\Mechanic\joypadMgmt.c:106: } else if(joypadCurrent & J_RIGHT){
    00000171 E5               [16]  360 	push	hl
    00000172 F8 02            [12]  361 	ldhl	sp,	#2
    00000174 CB 46            [12]  362 	bit	0, (hl)
    00000176 E1               [12]  363 	pop	hl
    00000177 28 22            [12]  364 	jr	Z, 00141$
                                    365 ;C:\Users\wsajj\GBdev\gbdk\_code\gbJam24\source\Mechanic\joypadMgmt.c:108: if(ghostySpeedX < MAX_SPD_RIGHT){
    00000179 79               [ 4]  366 	ld	a, c
    0000017A D6 E8            [ 8]  367 	sub	a, #0xe8
    0000017C 78               [ 4]  368 	ld	a, b
    0000017D 17               [ 4]  369 	rla
    0000017E 3F               [ 4]  370 	ccf
    0000017F 1F               [ 4]  371 	rra
    00000180 DE 83            [ 8]  372 	sbc	a, #0x83
    00000182 30 0C            [12]  373 	jr	NC, 00128$
                                    374 ;C:\Users\wsajj\GBdev\gbdk\_code\gbJam24\source\Mechanic\joypadMgmt.c:110: ghostySpeedX += SPD_CHANGE;
    00000184 F8 03            [12]  375 	ldhl	sp,	#3
    00000186 7E               [ 8]  376 	ld	a, (hl)
    00000187 EAr00r00         [16]  377 	ld	(#_ghostySpeedX),a
    0000018A F8 04            [12]  378 	ldhl	sp,	#4
    0000018C 7E               [ 8]  379 	ld	a, (hl)
    0000018D EAr01r00         [16]  380 	ld	(#_ghostySpeedX + 1),a
    00000190                        381 00128$:
                                    382 ;C:\Users\wsajj\GBdev\gbdk\_code\gbJam24\source\Mechanic\joypadMgmt.c:113: if(pcFacing==0){
    00000190 21r08r00         [12]  383 	ld	hl, #_pcFacing
    00000193 7E               [ 8]  384 	ld	a, (hl)
    00000194 B7               [ 4]  385 	or	a, a
    00000195 20 64            [12]  386 	jr	NZ, 00145$
                                    387 ;C:\Users\wsajj\GBdev\gbdk\_code\gbJam24\source\Mechanic\joypadMgmt.c:114: pcFacing = 1;
    00000197 36 01            [12]  388 	ld	(hl), #0x01
    00000199 18 60            [12]  389 	jr	00145$
    0000019B                        390 00141$:
                                    391 ;C:\Users\wsajj\GBdev\gbdk\_code\gbJam24\source\Mechanic\joypadMgmt.c:117: if(ghostySpeedX > 0){
    0000019B 58               [ 4]  392 	ld	e, b
    0000019C AF               [ 4]  393 	xor	a, a
    0000019D 57               [ 4]  394 	ld	d, a
    0000019E B9               [ 4]  395 	cp	a, c
    0000019F 98               [ 4]  396 	sbc	a, b
    000001A0 CB 7B            [ 8]  397 	bit	7, e
    000001A2 28 07            [12]  398 	jr	Z, 00395$
    000001A4 CB 7A            [ 8]  399 	bit	7, d
    000001A6 20 08            [12]  400 	jr	NZ, 00396$
    000001A8 BF               [ 4]  401 	cp	a, a
    000001A9 18 05            [12]  402 	jr	00396$
    000001AB                        403 00395$:
    000001AB CB 7A            [ 8]  404 	bit	7, d
    000001AD 28 01            [12]  405 	jr	Z, 00396$
    000001AF 37               [ 4]  406 	scf
    000001B0                        407 00396$:
    000001B0 30 18            [12]  408 	jr	NC, 00138$
                                    409 ;C:\Users\wsajj\GBdev\gbdk\_code\gbJam24\source\Mechanic\joypadMgmt.c:119: ghostySpeedX -= SPD_CHANGE;
    000001B2 F8 01            [12]  410 	ldhl	sp,	#1
    000001B4 7E               [ 8]  411 	ld	a, (hl)
    000001B5 EAr00r00         [16]  412 	ld	(#_ghostySpeedX),a
    000001B8 F8 02            [12]  413 	ldhl	sp,	#2
    000001BA 7E               [ 8]  414 	ld	a, (hl)
    000001BB 21r01r00         [12]  415 	ld	hl, #_ghostySpeedX + 1
                                    416 ;C:\Users\wsajj\GBdev\gbdk\_code\gbJam24\source\Mechanic\joypadMgmt.c:121: if(ghostySpeedX < 0){
    000001BE 32               [ 8]  417 	ld	(hl-), a
    000001BF 2A               [ 8]  418 	ld	a, (hl+)
    000001C0 CB 7E            [12]  419 	bit	7, (hl)
    000001C2 28 37            [12]  420 	jr	Z, 00145$
                                    421 ;C:\Users\wsajj\GBdev\gbdk\_code\gbJam24\source\Mechanic\joypadMgmt.c:122: ghostySpeedX = 0;
    000001C4 2B               [ 8]  422 	dec	hl
    000001C5 AF               [ 4]  423 	xor	a, a
    000001C6 22               [ 8]  424 	ld	(hl+), a
    000001C7 77               [ 8]  425 	ld	(hl), a
    000001C8 18 31            [12]  426 	jr	00145$
    000001CA                        427 00138$:
                                    428 ;C:\Users\wsajj\GBdev\gbdk\_code\gbJam24\source\Mechanic\joypadMgmt.c:124: } else if(ghostySpeedX < 0){
    000001CA CB 78            [ 8]  429 	bit	7, b
    000001CC 28 2D            [12]  430 	jr	Z, 00145$
                                    431 ;C:\Users\wsajj\GBdev\gbdk\_code\gbJam24\source\Mechanic\joypadMgmt.c:126: ghostySpeedX += SPD_CHANGE;
    000001CE F8 03            [12]  432 	ldhl	sp,	#3
    000001D0 7E               [ 8]  433 	ld	a, (hl)
    000001D1 EAr00r00         [16]  434 	ld	(#_ghostySpeedX),a
    000001D4 F8 04            [12]  435 	ldhl	sp,	#4
    000001D6 7E               [ 8]  436 	ld	a, (hl)
    000001D7 21r01r00         [12]  437 	ld	hl, #_ghostySpeedX + 1
                                    438 ;C:\Users\wsajj\GBdev\gbdk\_code\gbJam24\source\Mechanic\joypadMgmt.c:128: if (ghostySpeedX > 0){
    000001DA 32               [ 8]  439 	ld	(hl-), a
    000001DB 2A               [ 8]  440 	ld	a, (hl+)
    000001DC 4F               [ 4]  441 	ld	c, a
    000001DD 46               [ 8]  442 	ld	b, (hl)
    000001DE 58               [ 4]  443 	ld	e, b
    000001DF AF               [ 4]  444 	xor	a, a
    000001E0 57               [ 4]  445 	ld	d, a
    000001E1 B9               [ 4]  446 	cp	a, c
    000001E2 98               [ 4]  447 	sbc	a, b
    000001E3 CB 7B            [ 8]  448 	bit	7, e
    000001E5 28 07            [12]  449 	jr	Z, 00397$
    000001E7 CB 7A            [ 8]  450 	bit	7, d
    000001E9 20 08            [12]  451 	jr	NZ, 00398$
    000001EB BF               [ 4]  452 	cp	a, a
    000001EC 18 05            [12]  453 	jr	00398$
    000001EE                        454 00397$:
    000001EE CB 7A            [ 8]  455 	bit	7, d
    000001F0 28 01            [12]  456 	jr	Z, 00398$
    000001F2 37               [ 4]  457 	scf
    000001F3                        458 00398$:
    000001F3 30 06            [12]  459 	jr	NC, 00145$
                                    460 ;C:\Users\wsajj\GBdev\gbdk\_code\gbJam24\source\Mechanic\joypadMgmt.c:129: ghostySpeedX = 0;
    000001F5 AF               [ 4]  461 	xor	a, a
    000001F6 21r00r00         [12]  462 	ld	hl, #_ghostySpeedX
    000001F9 22               [ 8]  463 	ld	(hl+), a
    000001FA 77               [ 8]  464 	ld	(hl), a
    000001FB                        465 00145$:
                                    466 ;C:\Users\wsajj\GBdev\gbdk\_code\gbJam24\source\Mechanic\joypadMgmt.c:140: subPixCalc(pghostyX,pghostyY,ghostySpeedX,ghostySpeedY);
    000001FB 21r02r00         [12]  467 	ld	hl, #_ghostySpeedY
    000001FE 2A               [ 8]  468 	ld	a, (hl+)
    000001FF 5F               [ 4]  469 	ld	e, a
    00000200 56               [ 8]  470 	ld	d, (hl)
    00000201 D5               [16]  471 	push	de
    00000202 21r00r00         [12]  472 	ld	hl, #_ghostySpeedX
    00000205 2A               [ 8]  473 	ld	a, (hl+)
    00000206 5F               [ 4]  474 	ld	e, a
    00000207 56               [ 8]  475 	ld	d, (hl)
    00000208 D5               [16]  476 	push	de
    00000209 21r0Dr00         [12]  477 	ld	hl, #_pghostyY
    0000020C 2A               [ 8]  478 	ld	a, (hl+)
    0000020D 4F               [ 4]  479 	ld	c, a
    0000020E 46               [ 8]  480 	ld	b, (hl)
    0000020F 21r0Br00         [12]  481 	ld	hl, #_pghostyX
    00000212 2A               [ 8]  482 	ld	a, (hl+)
    00000213 5F               [ 4]  483 	ld	e, a
    00000214 56               [ 8]  484 	ld	d, (hl)
    00000215 CDr00r00         [24]  485 	call	_subPixCalc
                                    486 ;C:\Users\wsajj\GBdev\gbdk\_code\gbJam24\source\Mechanic\joypadMgmt.c:142: if(ghostyY <= CEILING){
    00000218 21r04r00         [12]  487 	ld	hl, #_ghostyY
    0000021B 2A               [ 8]  488 	ld	a, (hl+)
    0000021C 4F               [ 4]  489 	ld	c, a
    0000021D 46               [ 8]  490 	ld	b, (hl)
                                    491 ;C:\Users\wsajj\GBdev\gbdk\_code\gbJam24\source\Mechanic\joypadMgmt.c:148: ghostySpeedY = ghostySpeedY >> 1;
    0000021E FAr02r00         [16]  492 	ld	a, (#_ghostySpeedY)
    00000221 F8 03            [12]  493 	ldhl	sp,	#3
    00000223 77               [ 8]  494 	ld	(hl), a
    00000224 FAr03r00         [16]  495 	ld	a, (#_ghostySpeedY + 1)
    00000227 F8 04            [12]  496 	ldhl	sp,	#4
    00000229 77               [ 8]  497 	ld	(hl), a
    0000022A CB 2E            [16]  498 	sra	(hl)
    0000022C 2B               [ 8]  499 	dec	hl
    0000022D CB 1E            [16]  500 	rr	(hl)
                                    501 ;C:\Users\wsajj\GBdev\gbdk\_code\gbJam24\source\Mechanic\joypadMgmt.c:142: if(ghostyY <= CEILING){
    0000022F 58               [ 4]  502 	ld	e, b
    00000230 16 00            [ 8]  503 	ld	d, #0x00
    00000232 3E 17            [ 8]  504 	ld	a, #0x17
    00000234 B9               [ 4]  505 	cp	a, c
    00000235 3E 00            [ 8]  506 	ld	a, #0x00
    00000237 98               [ 4]  507 	sbc	a, b
    00000238 CB 7B            [ 8]  508 	bit	7, e
    0000023A 28 07            [12]  509 	jr	Z, 00399$
    0000023C CB 7A            [ 8]  510 	bit	7, d
    0000023E 20 08            [12]  511 	jr	NZ, 00400$
    00000240 BF               [ 4]  512 	cp	a, a
    00000241 18 05            [12]  513 	jr	00400$
    00000243                        514 00399$:
    00000243 CB 7A            [ 8]  515 	bit	7, d
    00000245 28 01            [12]  516 	jr	Z, 00400$
    00000247 37               [ 4]  517 	scf
    00000248                        518 00400$:
    00000248 38 25            [12]  519 	jr	C, 00151$
                                    520 ;C:\Users\wsajj\GBdev\gbdk\_code\gbJam24\source\Mechanic\joypadMgmt.c:144: if(ghostySpeedY < 0){
    0000024A 21r02r00         [12]  521 	ld	hl, #_ghostySpeedY
    0000024D 2A               [ 8]  522 	ld	a, (hl+)
    0000024E CB 7E            [12]  523 	bit	7, (hl)
    00000250 28 43            [12]  524 	jr	Z, 00152$
                                    525 ;C:\Users\wsajj\GBdev\gbdk\_code\gbJam24\source\Mechanic\joypadMgmt.c:147: ghostyY = CEILING;
    00000252 21r04r00         [12]  526 	ld	hl, #_ghostyY
    00000255 3E 17            [ 8]  527 	ld	a, #0x17
    00000257 22               [ 8]  528 	ld	(hl+), a
    00000258 AF               [ 4]  529 	xor	a, a
    00000259 77               [ 8]  530 	ld	(hl), a
                                    531 ;C:\Users\wsajj\GBdev\gbdk\_code\gbJam24\source\Mechanic\joypadMgmt.c:148: ghostySpeedY = ghostySpeedY >> 1;
    0000025A F8 03            [12]  532 	ldhl	sp,	#3
    0000025C 7E               [ 8]  533 	ld	a, (hl)
    0000025D EAr02r00         [16]  534 	ld	(#_ghostySpeedY),a
    00000260 F8 04            [12]  535 	ldhl	sp,	#4
    00000262 7E               [ 8]  536 	ld	a, (hl)
    00000263 21r03r00         [12]  537 	ld	hl, #_ghostySpeedY + 1
                                    538 ;C:\Users\wsajj\GBdev\gbdk\_code\gbJam24\source\Mechanic\joypadMgmt.c:149: ghostySpeedY = -ghostySpeedY;
    00000266 32               [ 8]  539 	ld	(hl-), a
    00000267 AF               [ 4]  540 	xor	a, a
    00000268 96               [ 8]  541 	sub	a, (hl)
    00000269 22               [ 8]  542 	ld	(hl+), a
    0000026A 9F               [ 4]  543 	sbc	a, a
    0000026B 96               [ 8]  544 	sub	a, (hl)
    0000026C 77               [ 8]  545 	ld	(hl), a
    0000026D 18 26            [12]  546 	jr	00152$
    0000026F                        547 00151$:
                                    548 ;C:\Users\wsajj\GBdev\gbdk\_code\gbJam24\source\Mechanic\joypadMgmt.c:151: } else if (ghostyY >= FLOOR){
    0000026F 79               [ 4]  549 	ld	a, c
    00000270 D6 84            [ 8]  550 	sub	a, #0x84
    00000272 78               [ 4]  551 	ld	a, b
    00000273 17               [ 4]  552 	rla
    00000274 3F               [ 4]  553 	ccf
    00000275 1F               [ 4]  554 	rra
    00000276 DE 80            [ 8]  555 	sbc	a, #0x80
    00000278 38 1B            [12]  556 	jr	C, 00152$
                                    557 ;C:\Users\wsajj\GBdev\gbdk\_code\gbJam24\source\Mechanic\joypadMgmt.c:154: ghostyY = FLOOR;
    0000027A 21r04r00         [12]  558 	ld	hl, #_ghostyY
    0000027D 3E 84            [ 8]  559 	ld	a, #0x84
    0000027F 22               [ 8]  560 	ld	(hl+), a
    00000280 AF               [ 4]  561 	xor	a, a
    00000281 77               [ 8]  562 	ld	(hl), a
                                    563 ;C:\Users\wsajj\GBdev\gbdk\_code\gbJam24\source\Mechanic\joypadMgmt.c:156: ghostySpeedY = ghostySpeedY >> 1;
    00000282 F8 03            [12]  564 	ldhl	sp,	#3
    00000284 7E               [ 8]  565 	ld	a, (hl)
    00000285 EAr02r00         [16]  566 	ld	(#_ghostySpeedY),a
    00000288 F8 04            [12]  567 	ldhl	sp,	#4
    0000028A 7E               [ 8]  568 	ld	a, (hl)
    0000028B 21r03r00         [12]  569 	ld	hl, #_ghostySpeedY + 1
                                    570 ;C:\Users\wsajj\GBdev\gbdk\_code\gbJam24\source\Mechanic\joypadMgmt.c:157: ghostySpeedY = -ghostySpeedY;
    0000028E 32               [ 8]  571 	ld	(hl-), a
    0000028F AF               [ 4]  572 	xor	a, a
    00000290 96               [ 8]  573 	sub	a, (hl)
    00000291 22               [ 8]  574 	ld	(hl+), a
    00000292 9F               [ 4]  575 	sbc	a, a
    00000293 96               [ 8]  576 	sub	a, (hl)
    00000294 77               [ 8]  577 	ld	(hl), a
    00000295                        578 00152$:
                                    579 ;C:\Users\wsajj\GBdev\gbdk\_code\gbJam24\source\Mechanic\joypadMgmt.c:160: if(ghostyX <= SCREEN_LEFT_BOUND){
    00000295 21r06r00         [12]  580 	ld	hl, #_ghostyX
    00000298 2A               [ 8]  581 	ld	a, (hl+)
    00000299 4F               [ 4]  582 	ld	c, a
    0000029A 46               [ 8]  583 	ld	b, (hl)
    0000029B 58               [ 4]  584 	ld	e, b
    0000029C 16 00            [ 8]  585 	ld	d, #0x00
    0000029E 3E 0F            [ 8]  586 	ld	a, #0x0f
    000002A0 B9               [ 4]  587 	cp	a, c
    000002A1 3E 00            [ 8]  588 	ld	a, #0x00
    000002A3 98               [ 4]  589 	sbc	a, b
    000002A4 CB 7B            [ 8]  590 	bit	7, e
    000002A6 28 07            [12]  591 	jr	Z, 00401$
    000002A8 CB 7A            [ 8]  592 	bit	7, d
    000002AA 20 08            [12]  593 	jr	NZ, 00402$
    000002AC BF               [ 4]  594 	cp	a, a
    000002AD 18 05            [12]  595 	jr	00402$
    000002AF                        596 00401$:
    000002AF CB 7A            [ 8]  597 	bit	7, d
    000002B1 28 01            [12]  598 	jr	Z, 00402$
    000002B3 37               [ 4]  599 	scf
    000002B4                        600 00402$:
    000002B4 38 1E            [12]  601 	jr	C, 00156$
                                    602 ;C:\Users\wsajj\GBdev\gbdk\_code\gbJam24\source\Mechanic\joypadMgmt.c:162: if(ghostySpeedX < 0){            
    000002B6 21r00r00         [12]  603 	ld	hl, #_ghostySpeedX
    000002B9 2A               [ 8]  604 	ld	a, (hl+)
    000002BA CB 7E            [12]  605 	bit	7, (hl)
    000002BC 28 16            [12]  606 	jr	Z, 00156$
                                    607 ;C:\Users\wsajj\GBdev\gbdk\_code\gbJam24\source\Mechanic\joypadMgmt.c:164: ghostyX = SCREEN_LEFT_BOUND;
    000002BE 21r06r00         [12]  608 	ld	hl, #_ghostyX
    000002C1 3E 0F            [ 8]  609 	ld	a, #0x0f
    000002C3 22               [ 8]  610 	ld	(hl+), a
    000002C4 AF               [ 4]  611 	xor	a, a
    000002C5 77               [ 8]  612 	ld	(hl), a
                                    613 ;C:\Users\wsajj\GBdev\gbdk\_code\gbJam24\source\Mechanic\joypadMgmt.c:165: ghostySpeedX = ghostySpeedX >> 1;
    000002C6 21r01r00         [12]  614 	ld	hl, #_ghostySpeedX + 1
    000002C9 CB 2E            [16]  615 	sra	(hl)
    000002CB 2B               [ 8]  616 	dec	hl
    000002CC CB 1E            [16]  617 	rr	(hl)
                                    618 ;C:\Users\wsajj\GBdev\gbdk\_code\gbJam24\source\Mechanic\joypadMgmt.c:166: ghostySpeedX = -ghostySpeedX;
    000002CE AF               [ 4]  619 	xor	a, a
    000002CF 96               [ 8]  620 	sub	a, (hl)
    000002D0 22               [ 8]  621 	ld	(hl+), a
    000002D1 9F               [ 4]  622 	sbc	a, a
    000002D2 96               [ 8]  623 	sub	a, (hl)
    000002D3 77               [ 8]  624 	ld	(hl), a
    000002D4                        625 00156$:
                                    626 ;C:\Users\wsajj\GBdev\gbdk\_code\gbJam24\source\Mechanic\joypadMgmt.c:170: if(ghostyX >= SCREEN_RIGHT_BOUND){
    000002D4 21r06r00         [12]  627 	ld	hl, #_ghostyX
    000002D7 2A               [ 8]  628 	ld	a, (hl+)
    000002D8 4F               [ 4]  629 	ld	c, a
    000002D9 46               [ 8]  630 	ld	b, (hl)
    000002DA 79               [ 4]  631 	ld	a, c
    000002DB D6 A0            [ 8]  632 	sub	a, #0xa0
    000002DD 78               [ 4]  633 	ld	a, b
    000002DE 17               [ 4]  634 	rla
    000002DF 3F               [ 4]  635 	ccf
    000002E0 1F               [ 4]  636 	rra
    000002E1 DE 80            [ 8]  637 	sbc	a, #0x80
    000002E3 38 33            [12]  638 	jr	C, 00160$
                                    639 ;C:\Users\wsajj\GBdev\gbdk\_code\gbJam24\source\Mechanic\joypadMgmt.c:172: if(ghostySpeedX > 0){            
    000002E5 21r00r00         [12]  640 	ld	hl, #_ghostySpeedX
    000002E8 2A               [ 8]  641 	ld	a, (hl+)
    000002E9 4F               [ 4]  642 	ld	c, a
    000002EA 46               [ 8]  643 	ld	b, (hl)
    000002EB 58               [ 4]  644 	ld	e, b
    000002EC AF               [ 4]  645 	xor	a, a
    000002ED 57               [ 4]  646 	ld	d, a
    000002EE B9               [ 4]  647 	cp	a, c
    000002EF 98               [ 4]  648 	sbc	a, b
    000002F0 CB 7B            [ 8]  649 	bit	7, e
    000002F2 28 07            [12]  650 	jr	Z, 00403$
    000002F4 CB 7A            [ 8]  651 	bit	7, d
    000002F6 20 08            [12]  652 	jr	NZ, 00404$
    000002F8 BF               [ 4]  653 	cp	a, a
    000002F9 18 05            [12]  654 	jr	00404$
    000002FB                        655 00403$:
    000002FB CB 7A            [ 8]  656 	bit	7, d
    000002FD 28 01            [12]  657 	jr	Z, 00404$
    000002FF 37               [ 4]  658 	scf
    00000300                        659 00404$:
    00000300 30 16            [12]  660 	jr	NC, 00160$
                                    661 ;C:\Users\wsajj\GBdev\gbdk\_code\gbJam24\source\Mechanic\joypadMgmt.c:177: ghostyX = SCREEN_RIGHT_BOUND;
    00000302 21r06r00         [12]  662 	ld	hl, #_ghostyX
    00000305 3E A0            [ 8]  663 	ld	a, #0xa0
    00000307 22               [ 8]  664 	ld	(hl+), a
    00000308 AF               [ 4]  665 	xor	a, a
    00000309 77               [ 8]  666 	ld	(hl), a
                                    667 ;C:\Users\wsajj\GBdev\gbdk\_code\gbJam24\source\Mechanic\joypadMgmt.c:178: ghostySpeedX = ghostySpeedX >> 1;
    0000030A 21r01r00         [12]  668 	ld	hl, #_ghostySpeedX + 1
    0000030D CB 2E            [16]  669 	sra	(hl)
    0000030F 2B               [ 8]  670 	dec	hl
    00000310 CB 1E            [16]  671 	rr	(hl)
                                    672 ;C:\Users\wsajj\GBdev\gbdk\_code\gbJam24\source\Mechanic\joypadMgmt.c:179: ghostySpeedX = -ghostySpeedX;
    00000312 AF               [ 4]  673 	xor	a, a
    00000313 96               [ 8]  674 	sub	a, (hl)
    00000314 22               [ 8]  675 	ld	(hl+), a
    00000315 9F               [ 4]  676 	sbc	a, a
    00000316 96               [ 8]  677 	sub	a, (hl)
    00000317 77               [ 8]  678 	ld	(hl), a
    00000318                        679 00160$:
                                    680 ;C:\Users\wsajj\GBdev\gbdk\_code\gbJam24\source\Mechanic\joypadMgmt.c:184: move_metasprite_flipx(ghostyMS,0,0,0,ghostyX,ghostyY);
    00000318 21r04r00         [12]  681 	ld	hl, #_ghostyY
    0000031B 4E               [ 8]  682 	ld	c, (hl)
    0000031C 21r06r00         [12]  683 	ld	hl, #_ghostyX
    0000031F 5E               [ 8]  684 	ld	e, (hl)
                                    685 ;C:\Users\wsajj\GBdev\gbdk\_code\gbJam24\source\Mechanic\joypadMgmt.c:183: if(pcFacing==0){
    00000320 FAr08r00         [16]  686 	ld	a, (#_pcFacing)
    00000323 B7               [ 4]  687 	or	a, a
    00000324 20 1E            [12]  688 	jr	NZ, 00164$
                                    689 ;C:\Users\wsajj\GBdev\gbdk\_code\gbJam24\source\Mechanic\joypadMgmt.c:184: move_metasprite_flipx(ghostyMS,0,0,0,ghostyX,ghostyY);
                                    690 ;c:\users\wsajj\gbdev\gbdk\include\gb\metasprites.h:200: __current_metasprite = metasprite;
    00000326 21r00r00         [12]  691 	ld	hl, #___current_metasprite
    00000329 3Er00            [ 8]  692 	ld	a, #<(_ghostyMS)
    0000032B 22               [ 8]  693 	ld	(hl+), a
    0000032C 36s00            [12]  694 	ld	(hl), #>(_ghostyMS)
                                    695 ;c:\users\wsajj\gbdev\gbdk\include\gb\metasprites.h:201: __current_base_tile = base_tile;
    0000032E 21r00r00         [12]  696 	ld	hl, #___current_base_tile
    00000331 36 00            [12]  697 	ld	(hl), #0x00
                                    698 ;c:\users\wsajj\gbdev\gbdk\include\gb\metasprites.h:202: __current_base_prop = base_prop;
    00000333 21r00r00         [12]  699 	ld	hl, #___current_base_prop
    00000336 36 00            [12]  700 	ld	(hl), #0x00
                                    701 ;c:\users\wsajj\gbdev\gbdk\include\gb\metasprites.h:203: return __move_metasprite_flipx(base_sprite, (y << 8) | (uint8_t)(x - 8u));
    00000338 41               [ 4]  702 	ld	b, c
    00000339 7B               [ 4]  703 	ld	a, e
    0000033A C6 F8            [ 8]  704 	add	a, #0xf8
    0000033C 5F               [ 4]  705 	ld	e, a
    0000033D 50               [ 4]  706 	ld	d, b
    0000033E AF               [ 4]  707 	xor	a, a
    0000033F CDr00r00         [24]  708 	call	___move_metasprite_flipx
                                    709 ;C:\Users\wsajj\GBdev\gbdk\_code\gbJam24\source\Mechanic\joypadMgmt.c:184: move_metasprite_flipx(ghostyMS,0,0,0,ghostyX,ghostyY);
    00000342 18 1D            [12]  710 	jr	00170$
    00000344                        711 00164$:
                                    712 ;C:\Users\wsajj\GBdev\gbdk\_code\gbJam24\source\Mechanic\joypadMgmt.c:185: } else if(pcFacing==1){
    00000344 FAr08r00         [16]  713 	ld	a, (#_pcFacing)
    00000347 3D               [ 4]  714 	dec	a
    00000348 20 17            [12]  715 	jr	NZ, 00170$
                                    716 ;C:\Users\wsajj\GBdev\gbdk\_code\gbJam24\source\Mechanic\joypadMgmt.c:186: move_metasprite_ex(ghostyMS,0,0,0,ghostyX,ghostyY);
                                    717 ;c:\users\wsajj\gbdev\gbdk\include\gb\metasprites.h:160: __current_metasprite = metasprite;
    0000034A 21r00r00         [12]  718 	ld	hl, #___current_metasprite
    0000034D 3Er00            [ 8]  719 	ld	a, #<(_ghostyMS)
    0000034F 22               [ 8]  720 	ld	(hl+), a
    00000350 36s00            [12]  721 	ld	(hl), #>(_ghostyMS)
                                    722 ;c:\users\wsajj\gbdev\gbdk\include\gb\metasprites.h:161: __current_base_tile = base_tile;
    00000352 21r00r00         [12]  723 	ld	hl, #___current_base_tile
    00000355 36 00            [12]  724 	ld	(hl), #0x00
                                    725 ;c:\users\wsajj\gbdev\gbdk\include\gb\metasprites.h:162: __current_base_prop = base_prop;
    00000357 21r00r00         [12]  726 	ld	hl, #___current_base_prop
    0000035A 36 00            [12]  727 	ld	(hl), #0x00
                                    728 ;c:\users\wsajj\gbdev\gbdk\include\gb\metasprites.h:163: return __move_metasprite(base_sprite, (y << 8) | (uint8_t)x);
    0000035C 51               [ 4]  729 	ld	d, c
    0000035D AF               [ 4]  730 	xor	a, a
    0000035E CDr00r00         [24]  731 	call	___move_metasprite
                                    732 ;C:\Users\wsajj\GBdev\gbdk\_code\gbJam24\source\Mechanic\joypadMgmt.c:186: move_metasprite_ex(ghostyMS,0,0,0,ghostyX,ghostyY);
    00000361                        733 00170$:
                                    734 ;C:\Users\wsajj\GBdev\gbdk\_code\gbJam24\source\Mechanic\joypadMgmt.c:190: }
    00000361 E8 05            [16]  735 	add	sp, #5
    00000363 C9               [16]  736 	ret
                                    737 	.area _CODE
                                    738 	.area _INITIALIZER
    00000000                        739 __xinit__ghostySpeedX:
    00000000 00 00                  740 	.dw #0x0000
    00000002                        741 __xinit__ghostySpeedY:
    00000002 00 00                  742 	.dw #0x0000
    00000004                        743 __xinit__ghostyY:
    00000004 50 00                  744 	.dw #0x0050
    00000006                        745 __xinit__ghostyX:
    00000006 50 00                  746 	.dw #0x0050
    00000008                        747 __xinit__pcFacing:
    00000008 01                     748 	.db #0x01	; 1
    00000009                        749 __xinit__gravityGhost:
    00000009 01 00                  750 	.dw #0x0001
    0000000B                        751 __xinit__pghostyX:
    0000000Br06r00                  752 	.dw _ghostyX
    0000000D                        753 __xinit__pghostyY:
    0000000Dr04r00                  754 	.dw _ghostyY
                                    755 	.area _CABS (ABS)
